target datalayout = "e-m:e-p270:32:32-p271:32:32-p272:64:64-i64:64-i128:128-f80:128-n8:16:32:64-S128"
target triple = "x86_64-pc-linux-gnu"

@_ZN7xgboost6detailL8kItoaLutE = internal constant [200 x i8] c"00010203040506070809101112131415161718192021222324252627282930313233343536373839404142434445464748495051525354555657585960616263646566676869707172737475767778798081828384858687888990919293949596979899", align 16

; Function Attrs: mustprogress uwtable
define linkonce_odr noundef i32 @_ZN7xgboost6detail4TensEj(i32 noundef %0) #4 comdat {
  %2 = alloca i32, align 4
  store i32 %0, ptr %2, align 4, !tbaa !15
  %3 = load i32, ptr %2, align 4, !tbaa !15
  %4 = icmp eq i32 %3, 1
  br i1 %4, label %5, label %6

5:                                                ; preds = %1
  br label %11

6:                                                ; preds = %1
  %7 = load i32, ptr %2, align 4, !tbaa !15
  %8 = sub i32 %7, 1
  %9 = call noundef i32 @_ZN7xgboost6detail4TensEj(i32 noundef %8)
  %10 = mul i32 %9, 10
  br label %11

11:                                               ; preds = %6, %5
  %12 = phi i32 [ 10, %5 ], [ %10, %6 ]
  ret i32 %12
}

; Function Attrs: mustprogress uwtable
define void @_ZN7xgboost6detail16ItoaUnsignedImplEPcjm(ptr noundef %0, i32 noundef %1, i64 noundef %2) #4 {
  %4 = alloca ptr, align 8
  %5 = alloca i32, align 4
  %6 = alloca i64, align 8
  %7 = alloca i32, align 4
  %8 = alloca i64, align 8
  %9 = alloca i64, align 8
  store ptr %0, ptr %4, align 8, !tbaa !7
  store i32 %1, ptr %5, align 4, !tbaa !15
  store i64 %2, ptr %6, align 8, !tbaa !36
  call void @llvm.lifetime.start.p0(i64 4, ptr %7) #3
  %10 = load i32, ptr %5, align 4, !tbaa !15
  %11 = sub i32 %10, 1
  store i32 %11, ptr %7, align 4, !tbaa !15
  br label %12

12:                                               ; preds = %17, %3
  %13 = load i64, ptr %6, align 8, !tbaa !36
  %14 = call noundef i32 @_ZN7xgboost6detail4TensEj(i32 noundef 2)
  %15 = zext i32 %14 to i64
  %16 = icmp uge i64 %13, %15
  br i1 %16, label %17, label %45

17:                                               ; preds = %12
  call void @llvm.lifetime.start.p0(i64 8, ptr %8) #3
  %18 = load i64, ptr %6, align 8, !tbaa !36
  %19 = call noundef i32 @_ZN7xgboost6detail4TensEj(i32 noundef 2)
  %20 = zext i32 %19 to i64
  %21 = urem i64 %18, %20
  %22 = mul i64 %21, 2
  store i64 %22, ptr %8, align 8, !tbaa !36
  %23 = call noundef i32 @_ZN7xgboost6detail4TensEj(i32 noundef 2)
  %24 = zext i32 %23 to i64
  %25 = load i64, ptr %6, align 8, !tbaa !36
  %26 = udiv i64 %25, %24
  store i64 %26, ptr %6, align 8, !tbaa !36
  %27 = load i64, ptr %8, align 8, !tbaa !36
  %28 = add i64 %27, 1
  %29 = getelementptr inbounds nuw [200 x i8], ptr @_ZN7xgboost6detailL8kItoaLutE, i64 0, i64 %28
  %30 = load i8, ptr %29, align 1, !tbaa !24
  %31 = load ptr, ptr %4, align 8, !tbaa !7
  %32 = load i32, ptr %7, align 4, !tbaa !15
  %33 = zext i32 %32 to i64
  %34 = getelementptr inbounds nuw i8, ptr %31, i64 %33
  store i8 %30, ptr %34, align 1, !tbaa !24
  %35 = load i64, ptr %8, align 8, !tbaa !36
  %36 = getelementptr inbounds nuw [200 x i8], ptr @_ZN7xgboost6detailL8kItoaLutE, i64 0, i64 %35
  %37 = load i8, ptr %36, align 1, !tbaa !24
  %38 = load ptr, ptr %4, align 8, !tbaa !7
  %39 = load i32, ptr %7, align 4, !tbaa !15
  %40 = sub i32 %39, 1
  %41 = zext i32 %40 to i64
  %42 = getelementptr inbounds nuw i8, ptr %38, i64 %41
  store i8 %37, ptr %42, align 1, !tbaa !24
  %43 = load i32, ptr %7, align 4, !tbaa !15
  %44 = sub i32 %43, 2
  store i32 %44, ptr %7, align 4, !tbaa !15
  call void @llvm.lifetime.end.p0(i64 8, ptr %8) #3
  br label %12, !llvm.loop !38

45:                                               ; preds = %12
  %46 = load i64, ptr %6, align 8, !tbaa !36
  %47 = icmp uge i64 %46, 10
  br i1 %47, label %48, label %62

48:                                               ; preds = %45
  call void @llvm.lifetime.start.p0(i64 8, ptr %9) #3
  %49 = load i64, ptr %6, align 8, !tbaa !36
  %50 = mul i64 %49, 2
  store i64 %50, ptr %9, align 8, !tbaa !36
  %51 = load i64, ptr %9, align 8, !tbaa !36
  %52 = getelementptr inbounds nuw [200 x i8], ptr @_ZN7xgboost6detailL8kItoaLutE, i64 0, i64 %51
  %53 = load i8, ptr %52, align 1, !tbaa !24
  %54 = load ptr, ptr %4, align 8, !tbaa !7
  %55 = getelementptr inbounds i8, ptr %54, i64 0
  store i8 %53, ptr %55, align 1, !tbaa !24
  %56 = load i64, ptr %9, align 8, !tbaa !36
  %57 = add i64 %56, 1
  %58 = getelementptr inbounds nuw [200 x i8], ptr @_ZN7xgboost6detailL8kItoaLutE, i64 0, i64 %57
  %59 = load i8, ptr %58, align 1, !tbaa !24
  %60 = load ptr, ptr %4, align 8, !tbaa !7
  %61 = getelementptr inbounds i8, ptr %60, i64 1
  store i8 %59, ptr %61, align 1, !tbaa !24
  call void @llvm.lifetime.end.p0(i64 8, ptr %9) #3
  br label %68

62:                                               ; preds = %45
  %63 = load i64, ptr %6, align 8, !tbaa !36
  %64 = add i64 48, %63
  %65 = trunc i64 %64 to i8
  %66 = load ptr, ptr %4, align 8, !tbaa !7
  %67 = getelementptr inbounds i8, ptr %66, i64 0
  store i8 %65, ptr %67, align 1, !tbaa !24
  br label %68

68:                                               ; preds = %62, %48
  call void @llvm.lifetime.end.p0(i64 4, ptr %7) #3
  ret void
}