; Function Attrs: mustprogress nofree norecurse nosync nounwind memory(argmem: write) uwtable
define void @_ZN7xgboost6detail16ItoaUnsignedImplEPcjm(ptr noundef writeonly captures(none) %0, i32 noundef %1, i64 noundef %2) local_unnamed_addr #6 {
  %.not27 = icmp ult i64 %2, 100
  br i1 %.not27, label %_ZN7xgboost6detail4TensEj.exit._crit_edge, label %tailrecurse.i19.preheader.lr.ph

tailrecurse.i19.preheader.lr.ph:                  ; preds = %3
  %4 = add i32 %1, -1
  br label %tailrecurse.i19.preheader

tailrecurse.i19.preheader:                        ; preds = %tailrecurse.i19.preheader.lr.ph, %tailrecurse.i19.preheader
  %.029 = phi i64 [ %2, %tailrecurse.i19.preheader.lr.ph ], [ %7, %tailrecurse.i19.preheader ]
  %.01828 = phi i32 [ %4, %tailrecurse.i19.preheader.lr.ph ], [ %18, %tailrecurse.i19.preheader ]
  %5 = urem i64 %.029, 100
  %6 = shl nuw nsw i64 %5, 1
  %7 = udiv i64 %.029, 100
  %8 = or disjoint i64 %6, 1
  %9 = getelementptr inbounds nuw [200 x i8], ptr @_ZN7xgboost6detailL8kItoaLutE, i64 0, i64 %8
  %10 = load i8, ptr %9, align 1, !tbaa !3
  %11 = zext i32 %.01828 to i64
  %12 = getelementptr inbounds nuw i8, ptr %0, i64 %11
  store i8 %10, ptr %12, align 1, !tbaa !3
  %13 = getelementptr inbounds nuw [200 x i8], ptr @_ZN7xgboost6detailL8kItoaLutE, i64 0, i64 %6
  %14 = load i8, ptr %13, align 2, !tbaa !3
  %15 = add i32 %.01828, -1
  %16 = zext i32 %15 to i64
  %17 = getelementptr inbounds nuw i8, ptr %0, i64 %16
  store i8 %14, ptr %17, align 1, !tbaa !3
  %18 = add i32 %.01828, -2
  %.not = icmp ult i64 %.029, 10000
  br i1 %.not, label %_ZN7xgboost6detail4TensEj.exit._crit_edge, label %tailrecurse.i19.preheader, !llvm.loop !12

_ZN7xgboost6detail4TensEj.exit._crit_edge:        ; preds = %tailrecurse.i19.preheader, %3
  %.0.lcssa = phi i64 [ %2, %3 ], [ %7, %tailrecurse.i19.preheader ]
  %19 = icmp samesign ugt i64 %.0.lcssa, 9
  br i1 %19, label %20, label %28

20:                                               ; preds = %_ZN7xgboost6detail4TensEj.exit._crit_edge
  %21 = shl nuw nsw i64 %.0.lcssa, 1
  %22 = getelementptr inbounds nuw [200 x i8], ptr @_ZN7xgboost6detailL8kItoaLutE, i64 0, i64 %21
  %23 = load i8, ptr %22, align 2, !tbaa !3
  %24 = or disjoint i64 %21, 1
  %25 = getelementptr inbounds nuw [200 x i8], ptr @_ZN7xgboost6detailL8kItoaLutE, i64 0, i64 %24
  %26 = load i8, ptr %25, align 1, !tbaa !3
  %27 = getelementptr inbounds nuw i8, ptr %0, i64 1
  store i8 %26, ptr %27, align 1, !tbaa !3
  br label %31

28:                                               ; preds = %_ZN7xgboost6detail4TensEj.exit._crit_edge
  %29 = trunc nuw i64 %.0.lcssa to i8
  %30 = or disjoint i8 %29, 48
  br label %31

31:                                               ; preds = %28, %20
  %.sink = phi i8 [ %23, %20 ], [ %30, %28 ]
  store i8 %.sink, ptr %0, align 1, !tbaa !3
  ret void
}